; ModuleID = '20/136.c'
source_filename = "20/136.c"
target datalayout = "e-m:e-p270:32:32-p271:32:32-p272:64:64-i64:64-f80:128-n8:16:32:64-S128"
target triple = "x86_64-pc-linux-gnu"

@.str = private unnamed_addr constant [6 x i8] c"%s %s\00", align 1
@.str.1 = private unnamed_addr constant [4 x i8] c"%s\0A\00", align 1

; Function Attrs: noinline nounwind uwtable
define dso_local void @main() #0 {
  %1 = alloca [1000 x i8], align 16
  %2 = alloca [3 x i8], align 1
  %3 = alloca [1000 x i8], align 16
  %4 = alloca i32, align 4
  %5 = alloca i32, align 4
  %6 = alloca i32, align 4
  %7 = bitcast [1000 x i8]* %1 to i8*
  call void @llvm.memset.p0i8.i64(i8* align 16 %7, i8 0, i64 1000, i1 false)
  %8 = bitcast [1000 x i8]* %3 to i8*
  call void @llvm.memset.p0i8.i64(i8* align 16 %8, i8 0, i64 1000, i1 false)
  store i32 0, i32* %5, align 4
  store i32 0, i32* %6, align 4
  br label %9

9:                                                ; preds = %102, %0
  %10 = getelementptr inbounds [1000 x i8], [1000 x i8]* %1, i64 0, i64 0
  %11 = getelementptr inbounds [3 x i8], [3 x i8]* %2, i64 0, i64 0
  %12 = call i32 (i8*, ...) @__isoc99_scanf(i8* getelementptr inbounds ([6 x i8], [6 x i8]* @.str, i64 0, i64 0), i8* %10, i8* %11)
  %13 = icmp ne i32 %12, -1
  br i1 %13, label %14, label %103

14:                                               ; preds = %9
  %15 = getelementptr inbounds [1000 x i8], [1000 x i8]* %1, i64 0, i64 0
  %16 = call i64 @strlen(i8* %15) #5
  %17 = trunc i64 %16 to i32
  store i32 %17, i32* %5, align 4
  store i32 0, i32* %4, align 4
  br label %18

18:                                               ; preds = %37, %14
  %19 = load i32, i32* %4, align 4
  %20 = load i32, i32* %5, align 4
  %21 = icmp slt i32 %19, %20
  br i1 %21, label %22, label %40

22:                                               ; preds = %18
  %23 = load i32, i32* %4, align 4
  %24 = sext i32 %23 to i64
  %25 = getelementptr inbounds [1000 x i8], [1000 x i8]* %1, i64 0, i64 %24
  %26 = load i8, i8* %25, align 1
  %27 = sext i8 %26 to i32
  %28 = load i32, i32* %6, align 4
  %29 = sext i32 %28 to i64
  %30 = getelementptr inbounds [1000 x i8], [1000 x i8]* %1, i64 0, i64 %29
  %31 = load i8, i8* %30, align 1
  %32 = sext i8 %31 to i32
  %33 = icmp sgt i32 %27, %32
  br i1 %33, label %34, label %36

34:                                               ; preds = %22
  %35 = load i32, i32* %4, align 4
  store i32 %35, i32* %6, align 4
  br label %36

36:                                               ; preds = %34, %22
  br label %37

37:                                               ; preds = %36
  %38 = load i32, i32* %4, align 4
  %39 = add nsw i32 %38, 1
  store i32 %39, i32* %4, align 4
  br label %18

40:                                               ; preds = %18
  %41 = load i32, i32* %6, align 4
  %42 = add nsw i32 %41, 1
  store i32 %42, i32* %4, align 4
  br label %43

43:                                               ; preds = %58, %40
  %44 = load i32, i32* %4, align 4
  %45 = load i32, i32* %5, align 4
  %46 = icmp slt i32 %44, %45
  br i1 %46, label %47, label %61

47:                                               ; preds = %43
  %48 = load i32, i32* %4, align 4
  %49 = sext i32 %48 to i64
  %50 = getelementptr inbounds [1000 x i8], [1000 x i8]* %1, i64 0, i64 %49
  %51 = load i8, i8* %50, align 1
  %52 = load i32, i32* %4, align 4
  %53 = sub nsw i32 %52, 1
  %54 = load i32, i32* %6, align 4
  %55 = sub nsw i32 %53, %54
  %56 = sext i32 %55 to i64
  %57 = getelementptr inbounds [1000 x i8], [1000 x i8]* %3, i64 0, i64 %56
  store i8 %51, i8* %57, align 1
  br label %58

58:                                               ; preds = %47
  %59 = load i32, i32* %4, align 4
  %60 = add nsw i32 %59, 1
  store i32 %60, i32* %4, align 4
  br label %43

61:                                               ; preds = %43
  %62 = getelementptr inbounds [3 x i8], [3 x i8]* %2, i64 0, i64 0
  %63 = load i8, i8* %62, align 1
  %64 = load i32, i32* %6, align 4
  %65 = add nsw i32 %64, 1
  %66 = sext i32 %65 to i64
  %67 = getelementptr inbounds [1000 x i8], [1000 x i8]* %1, i64 0, i64 %66
  store i8 %63, i8* %67, align 1
  %68 = getelementptr inbounds [3 x i8], [3 x i8]* %2, i64 0, i64 1
  %69 = load i8, i8* %68, align 1
  %70 = load i32, i32* %6, align 4
  %71 = add nsw i32 %70, 2
  %72 = sext i32 %71 to i64
  %73 = getelementptr inbounds [1000 x i8], [1000 x i8]* %1, i64 0, i64 %72
  store i8 %69, i8* %73, align 1
  %74 = getelementptr inbounds [3 x i8], [3 x i8]* %2, i64 0, i64 2
  %75 = load i8, i8* %74, align 1
  %76 = load i32, i32* %6, align 4
  %77 = add nsw i32 %76, 3
  %78 = sext i32 %77 to i64
  %79 = getelementptr inbounds [1000 x i8], [1000 x i8]* %1, i64 0, i64 %78
  store i8 %75, i8* %79, align 1
  %80 = load i32, i32* %6, align 4
  %81 = add nsw i32 %80, 4
  %82 = sext i32 %81 to i64
  %83 = getelementptr inbounds [1000 x i8], [1000 x i8]* %1, i64 0, i64 %82
  store i8 0, i8* %83, align 1
  %84 = getelementptr inbounds [1000 x i8], [1000 x i8]* %1, i64 0, i64 0
  %85 = getelementptr inbounds [1000 x i8], [1000 x i8]* %3, i64 0, i64 0
  %86 = call i8* @strcat(i8* %84, i8* %85) #6
  %87 = getelementptr inbounds [1000 x i8], [1000 x i8]* %1, i64 0, i64 0
  %88 = call i32 (i8*, ...) @printf(i8* getelementptr inbounds ([4 x i8], [4 x i8]* @.str.1, i64 0, i64 0), i8* %87)
  store i32 0, i32* %4, align 4
  br label %89

89:                                               ; preds = %96, %61
  %90 = load i32, i32* %4, align 4
  %91 = sext i32 %90 to i64
  %92 = getelementptr inbounds [1000 x i8], [1000 x i8]* %3, i64 0, i64 %91
  %93 = load i8, i8* %92, align 1
  %94 = sext i8 %93 to i32
  %95 = icmp ne i32 %94, 0
  br i1 %95, label %96, label %102

96:                                               ; preds = %89
  %97 = load i32, i32* %4, align 4
  %98 = sext i32 %97 to i64
  %99 = getelementptr inbounds [1000 x i8], [1000 x i8]* %3, i64 0, i64 %98
  store i8 0, i8* %99, align 1
  %100 = load i32, i32* %4, align 4
  %101 = add nsw i32 %100, 1
  store i32 %101, i32* %4, align 4
  br label %89

102:                                              ; preds = %89
  br label %9

103:                                              ; preds = %9
  ret void
}

; Function Attrs: argmemonly nounwind willreturn
declare void @llvm.memset.p0i8.i64(i8* nocapture writeonly, i8, i64, i1 immarg) #1

declare dso_local i32 @__isoc99_scanf(i8*, ...) #2

; Function Attrs: nounwind readonly
declare dso_local i64 @strlen(i8*) #3

; Function Attrs: nounwind
declare dso_local i8* @strcat(i8*, i8*) #4

declare dso_local i32 @printf(i8*, ...) #2


!llvm.module.flags = !{!0}
!llvm.ident = !{!1}

!0 = !{i32 1, !"wchar_size", i32 4}
!1 = !{!"clang version 10.0.0-4ubuntu1 "}
